; Function Attrs: nounwind uwtable
define dso_local ptr @list_intersection_int(ptr noundef readonly captures(address_is_null) %0, ptr noundef readonly captures(address_is_null) %1) local_unnamed_addr #0 {
  %3 = icmp eq ptr %0, null
  %4 = icmp eq ptr %1, null
  %or.cond = or i1 %3, %4
  br i1 %or.cond, label %.loopexit, label %.preheader

.preheader:                                       ; preds = %2
  %5 = getelementptr inbounds nuw i8, ptr %0, i64 4
  %6 = load i32, ptr %5, align 4
  %.not21 = icmp sgt i32 %6, 0
  br i1 %.not21, label %.lr.ph.i.lr.ph, label %.loopexit

.lr.ph.i.lr.ph:                                   ; preds = %.preheader
  %7 = getelementptr inbounds nuw i8, ptr %0, i64 16
  %8 = getelementptr inbounds nuw i8, ptr %1, i64 16
  %9 = getelementptr inbounds nuw i8, ptr %1, i64 4
  %10 = load i32, ptr %9, align 4
  %11 = icmp sgt i32 %10, 0
  br i1 %11, label %.lr.ph.i, label %.loopexit

.lr.ph.ithread-pre-split:                         ; preds = %list_member_int.exit.thread
  %.pr = load i32, ptr %9, align 4
  br label %.lr.ph.i

.lr.ph.i:                                         ; preds = %.lr.ph.i.lr.ph, %.lr.ph.ithread-pre-split
  %12 = phi i32 [ %.pr, %.lr.ph.ithread-pre-split ], [ %10, %.lr.ph.i.lr.ph ]
  %13 = phi i32 [ %25, %.lr.ph.ithread-pre-split ], [ %6, %.lr.ph.i.lr.ph ]
  %indvars.iv = phi i64 [ %indvars.iv.next, %.lr.ph.ithread-pre-split ], [ 0, %.lr.ph.i.lr.ph ]
  %.01422 = phi ptr [ %.1, %.lr.ph.ithread-pre-split ], [ null, %.lr.ph.i.lr.ph ]
  %14 = load ptr, ptr %7, align 8
  %15 = getelementptr inbounds nuw %union.ListCell, ptr %14, i64 %indvars.iv
  %16 = load i32, ptr %15, align 8
  %17 = icmp sgt i32 %12, 0
  br i1 %17, label %.lr.ph23.i, label %list_member_int.exit.thread

.lr.ph23.i:                                       ; preds = %.lr.ph.i
  %18 = load ptr, ptr %8, align 8
  %wide.trip.count.i = zext nneg i32 %12 to i64
  br label %20

19:                                               ; preds = %20
  %indvars.iv.next.i = add nuw nsw i64 %indvars.iv.i, 1
  %exitcond.not.i = icmp eq i64 %indvars.iv.next.i, %wide.trip.count.i
  br i1 %exitcond.not.i, label %list_member_int.exit.thread, label %20

20:                                               ; preds = %19, %.lr.ph23.i
  %indvars.iv.i = phi i64 [ 0, %.lr.ph23.i ], [ %indvars.iv.next.i, %19 ]
  %21 = getelementptr inbounds nuw %union.ListCell, ptr %18, i64 %indvars.iv.i
  %22 = load i32, ptr %21, align 8
  %23 = icmp eq i32 %22, %16
  br i1 %23, label %list_member_int.exit, label %19

list_member_int.exit:                             ; preds = %20
  %24 = tail call ptr @lappend_int(ptr noundef %.01422, i32 noundef %16)
  %.pre = load i32, ptr %5, align 4
  br label %list_member_int.exit.thread

list_member_int.exit.thread:                      ; preds = %19, %.lr.ph.i, %list_member_int.exit
  %25 = phi i32 [ %.pre, %list_member_int.exit ], [ %13, %.lr.ph.i ], [ %13, %19 ]
  %.1 = phi ptr [ %24, %list_member_int.exit ], [ %.01422, %.lr.ph.i ], [ %.01422, %19 ]
  %indvars.iv.next = add nuw nsw i64 %indvars.iv, 1
  %26 = sext i32 %25 to i64
  %.not = icmp slt i64 %indvars.iv.next, %26
  br i1 %.not, label %.lr.ph.ithread-pre-split, label %.loopexit, !llvm.loop !7

.loopexit:                                        ; preds = %list_member_int.exit.thread, %.lr.ph.i.lr.ph, %.preheader, %2
  %.0 = phi ptr [ null, %2 ], [ null, %.preheader ], [ null, %.lr.ph.i.lr.ph ], [ %.1, %list_member_int.exit.thread ]
  ret ptr %.0
}